target datalayout = "e-m:e-p270:32:32-p271:32:32-p272:64:64-i64:64-i128:128-f80:128-n8:16:32:64-S128"
target triple = "x86_64-pc-linux-gnu"

%"class.icu_77::UMutex" = type { [40 x i8], %"struct.std::atomic", ptr }
%"struct.std::atomic" = type { %"struct.std::__atomic_base" }
%"struct.std::__atomic_base" = type { ptr }

@_ZL13registryMutex = internal global %"class.icu_77::UMutex" zeroinitializer, align 8
@_ZL8registry = internal global ptr null, align 8

; Function Attrs: mustprogress uwtable
define noundef nonnull align 8 dereferenceable(64) ptr @_ZN6icu_7714Transliterator14getAvailableIDEi(i32 noundef %0) #1 align 2 {
  %2 = alloca i32, align 4
  %3 = alloca ptr, align 8
  %4 = alloca i32, align 4
  store i32 %0, ptr %2, align 4, !tbaa !14
  call void @llvm.lifetime.start.p0(i64 8, ptr %3) #15
  store ptr null, ptr %3, align 8, !tbaa !25
  call void @umtx_lock_77(ptr noundef @_ZL13registryMutex)
  call void @llvm.lifetime.start.p0(i64 4, ptr %4) #15
  store i32 0, ptr %4, align 4, !tbaa !15
  %5 = load ptr, ptr @_ZL8registry, align 8, !tbaa !86
  %6 = icmp ne ptr %5, null
  br i1 %6, label %10, label %7

7:                                                ; preds = %1
  %8 = call noundef signext i8 @_ZN6icu_7714Transliterator18initializeRegistryER10UErrorCode(ptr noundef nonnull align 4 dereferenceable(4) %4)
  %9 = icmp ne i8 %8, 0
  br i1 %9, label %10, label %14

10:                                               ; preds = %7, %1
  %11 = load ptr, ptr @_ZL8registry, align 8, !tbaa !86
  %12 = load i32, ptr %2, align 4, !tbaa !14
  %13 = call noundef nonnull align 8 dereferenceable(64) ptr @_ZNK6icu_7722TransliteratorRegistry14getAvailableIDEi(ptr noundef nonnull align 8 dereferenceable(312) %11, i32 noundef %12)
  store ptr %13, ptr %3, align 8, !tbaa !25
  br label %14

14:                                               ; preds = %10, %7
  call void @umtx_unlock_77(ptr noundef @_ZL13registryMutex)
  %15 = load ptr, ptr %3, align 8, !tbaa !25
  call void @llvm.lifetime.end.p0(i64 4, ptr %4) #15
  call void @llvm.lifetime.end.p0(i64 8, ptr %3) #15
  ret ptr %15
}