; Function Attrs: mustprogress uwtable
define noundef nonnull align 8 dereferenceable(64) ptr @_ZN6icu_7714Transliterator14getAvailableIDEi(i32 noundef %0) local_unnamed_addr #1 align 2 {
  %2 = alloca i32, align 4
  tail call void @umtx_lock_77(ptr noundef nonnull @_ZL13registryMutex)
  call void @llvm.lifetime.start.p0(i64 4, ptr nonnull %2) #21
  store i32 0, ptr %2, align 4, !tbaa !13
  %3 = load ptr, ptr @_ZL8registry, align 8, !tbaa !49
  %.not = icmp eq ptr %3, null
  br i1 %.not, label %4, label %6

4:                                                ; preds = %1
  %5 = call noundef signext i8 @_ZN6icu_7714Transliterator18initializeRegistryER10UErrorCode(ptr noundef nonnull align 4 dereferenceable(4) %2)
  %.not1 = icmp eq i8 %5, 0
  br i1 %.not1, label %9, label %._crit_edge

._crit_edge:                                      ; preds = %4
  %.pre = load ptr, ptr @_ZL8registry, align 8, !tbaa !49
  br label %6

6:                                                ; preds = %._crit_edge, %1
  %7 = phi ptr [ %.pre, %._crit_edge ], [ %3, %1 ]
  %8 = call noundef nonnull align 8 dereferenceable(64) ptr @_ZNK6icu_7722TransliteratorRegistry14getAvailableIDEi(ptr noundef nonnull align 8 dereferenceable(312) %7, i32 noundef %0)
  br label %9

9:                                                ; preds = %6, %4
  %.0 = phi ptr [ %8, %6 ], [ null, %4 ]
  call void @umtx_unlock_77(ptr noundef nonnull @_ZL13registryMutex)
  call void @llvm.lifetime.end.p0(i64 4, ptr nonnull %2) #21
  ret ptr %.0
}